target datalayout = "e-m:e-p270:32:32-p271:32:32-p272:64:64-i64:64-i128:128-f80:128-n8:16:32:64-S128"
target triple = "x86_64-pc-linux-gnu"

%struct.JsonbValue = type { i32, %union.anon }
%union.anon = type { %struct.anon.2 }
%struct.anon.2 = type { i32, ptr, i8 }
%struct.anon.1 = type { i32, ptr }

@.str.1 = private unnamed_addr constant [8 x i8] c"jsonb.c\00", align 1
@.str.7 = private unnamed_addr constant [5 x i8] c"null\00", align 1
@.str.32 = private unnamed_addr constant [5 x i8] c"true\00", align 1
@.str.33 = private unnamed_addr constant [6 x i8] c"false\00", align 1
@.str.43 = private unnamed_addr constant [26 x i8] c"unknown jsonb scalar type\00", align 1
@__func__.jsonb_put_escaped_value = private unnamed_addr constant [24 x i8] c"jsonb_put_escaped_value\00", align 1

; Function Attrs: inlinehint nounwind uwtable
define internal ptr @DatumGetPointer(i64 noundef %0) #2 {
  %2 = alloca i64, align 8
  store i64 %0, ptr %2, align 8
  %3 = load i64, ptr %2, align 8
  %4 = inttoptr i64 %3 to ptr
  ret ptr %4
}

; Function Attrs: inlinehint nounwind uwtable
define internal ptr @DatumGetCString(i64 noundef %0) #2 {
  %2 = alloca i64, align 8
  store i64 %0, ptr %2, align 8
  %3 = load i64, ptr %2, align 8
  %4 = call ptr @DatumGetPointer(i64 noundef %3)
  ret ptr %4
}

; Function Attrs: inlinehint nounwind uwtable
define internal i64 @PointerGetDatum(ptr noundef %0) #2 {
  %2 = alloca ptr, align 8
  store ptr %0, ptr %2, align 8
  %3 = load ptr, ptr %2, align 8
  %4 = ptrtoint ptr %3 to i64
  ret i64 %4
}

; Function Attrs: nounwind uwtable
define internal void @jsonb_put_escaped_value(ptr noundef %0, ptr noundef %1) #0 {
  %3 = alloca ptr, align 8
  %4 = alloca ptr, align 8
  store ptr %0, ptr %3, align 8
  store ptr %1, ptr %4, align 8
  %5 = load ptr, ptr %4, align 8
  %6 = getelementptr inbounds nuw %struct.JsonbValue, ptr %5, i32 0, i32 0
  %7 = load i32, ptr %6, align 8
  switch i32 %7, label %38 [
    i32 0, label %8
    i32 1, label %10
    i32 2, label %20
    i32 3, label %28
  ]

8:                                                ; preds = %2
  %9 = load ptr, ptr %3, align 8
  call void @appendBinaryStringInfo(ptr noundef %9, ptr noundef @.str.7, i32 noundef 4)
  br label %48

10:                                               ; preds = %2
  %11 = load ptr, ptr %3, align 8
  %12 = load ptr, ptr %4, align 8
  %13 = getelementptr inbounds nuw %struct.JsonbValue, ptr %12, i32 0, i32 1
  %14 = getelementptr inbounds nuw %struct.anon.1, ptr %13, i32 0, i32 1
  %15 = load ptr, ptr %14, align 8
  %16 = load ptr, ptr %4, align 8
  %17 = getelementptr inbounds nuw %struct.JsonbValue, ptr %16, i32 0, i32 1
  %18 = getelementptr inbounds nuw %struct.anon.1, ptr %17, i32 0, i32 0
  %19 = load i32, ptr %18, align 8
  call void @escape_json_with_len(ptr noundef %11, ptr noundef %15, i32 noundef %19)
  br label %48

20:                                               ; preds = %2
  %21 = load ptr, ptr %3, align 8
  %22 = load ptr, ptr %4, align 8
  %23 = getelementptr inbounds nuw %struct.JsonbValue, ptr %22, i32 0, i32 1
  %24 = load ptr, ptr %23, align 8
  %25 = call i64 @PointerGetDatum(ptr noundef %24)
  %26 = call i64 @DirectFunctionCall1Coll(ptr noundef @numeric_out, i32 noundef 0, i64 noundef %25)
  %27 = call ptr @DatumGetCString(i64 noundef %26)
  call void @appendStringInfoString(ptr noundef %21, ptr noundef %27)
  br label %48

28:                                               ; preds = %2
  %29 = load ptr, ptr %4, align 8
  %30 = getelementptr inbounds nuw %struct.JsonbValue, ptr %29, i32 0, i32 1
  %31 = load i8, ptr %30, align 8, !range !4, !noundef !5
  %32 = trunc i8 %31 to i1
  br i1 %32, label %33, label %35

33:                                               ; preds = %28
  %34 = load ptr, ptr %3, align 8
  call void @appendBinaryStringInfo(ptr noundef %34, ptr noundef @.str.32, i32 noundef 4)
  br label %37

35:                                               ; preds = %28
  %36 = load ptr, ptr %3, align 8
  call void @appendBinaryStringInfo(ptr noundef %36, ptr noundef @.str.33, i32 noundef 5)
  br label %37

37:                                               ; preds = %35, %33
  br label %48

38:                                               ; preds = %2
  br label %39

39:                                               ; preds = %38
  br i1 true, label %40, label %42

40:                                               ; preds = %39
  %41 = call zeroext i1 @errstart_cold(i32 noundef 21, ptr noundef null) #10
  br i1 %41, label %44, label %46

42:                                               ; preds = %39
  %43 = call zeroext i1 @errstart(i32 noundef 21, ptr noundef null)
  br i1 %43, label %44, label %46

44:                                               ; preds = %42, %40
  %45 = call i32 (ptr, ...) @errmsg_internal(ptr noundef @.str.43)
  call void @errfinish(ptr noundef @.str.1, i32 noundef 371, ptr noundef @__func__.jsonb_put_escaped_value)
  br label %46

46:                                               ; preds = %44, %42, %40
  unreachable

47:                                               ; No predecessors!
  br label %48

48:                                               ; preds = %47, %37, %20, %10, %8
  ret void
}