; Function Attrs: nounwind uwtable
define internal fastcc void @jsonb_put_escaped_value(ptr noundef %0, ptr noundef nonnull readonly captures(none) %1) unnamed_addr #0 {
  %3 = load i32, ptr %1, align 8
  switch i32 %3, label %22 [
    i32 0, label %4
    i32 1, label %5
    i32 2, label %10
    i32 3, label %16
  ]

4:                                                ; preds = %2
  tail call void @appendBinaryStringInfo(ptr noundef %0, ptr noundef nonnull @.str.7, i32 noundef 4) #11
  br label %25

5:                                                ; preds = %2
  %6 = getelementptr inbounds nuw i8, ptr %1, i64 8
  %7 = getelementptr inbounds nuw i8, ptr %1, i64 16
  %8 = load ptr, ptr %7, align 8
  %9 = load i32, ptr %6, align 8
  tail call void @escape_json_with_len(ptr noundef %0, ptr noundef %8, i32 noundef %9) #11
  br label %25

10:                                               ; preds = %2
  %11 = getelementptr inbounds nuw i8, ptr %1, i64 8
  %12 = load ptr, ptr %11, align 8
  %13 = ptrtoint ptr %12 to i64
  %14 = tail call i64 @DirectFunctionCall1Coll(ptr noundef nonnull @numeric_out, i32 noundef 0, i64 noundef %13) #11
  %15 = inttoptr i64 %14 to ptr
  tail call void @appendStringInfoString(ptr noundef %0, ptr noundef %15) #11
  br label %25

16:                                               ; preds = %2
  %17 = getelementptr inbounds nuw i8, ptr %1, i64 8
  %18 = load i8, ptr %17, align 8, !range !7, !noundef !8
  %19 = trunc nuw i8 %18 to i1
  br i1 %19, label %20, label %21

20:                                               ; preds = %16
  tail call void @appendBinaryStringInfo(ptr noundef %0, ptr noundef nonnull @.str.32, i32 noundef 4) #11
  br label %25

21:                                               ; preds = %16
  tail call void @appendBinaryStringInfo(ptr noundef %0, ptr noundef nonnull @.str.33, i32 noundef 5) #11
  br label %25

22:                                               ; preds = %2
  %23 = tail call zeroext i1 @errstart_cold(i32 noundef 21, ptr noundef null) #12
  tail call void @llvm.assume(i1 %23)
  %24 = tail call i32 (ptr, ...) @errmsg_internal(ptr noundef nonnull @.str.43) #11
  tail call void @errfinish(ptr noundef nonnull @.str.1, i32 noundef 371, ptr noundef nonnull @__func__.jsonb_put_escaped_value) #11
  unreachable

25:                                               ; preds = %20, %21, %10, %5, %4
  ret void
}